; Function Attrs: mustprogress nofree norecurse nosync nounwind willreturn memory(argmem: write) uwtable
define hidden range(i64 -784352998241, 788646526601) i64 @SDL_CivilToDays(i32 noundef %0, i32 noundef %1, i32 noundef %2, ptr noundef writeonly captures(address_is_null) %3, ptr noundef writeonly captures(address_is_null) %4) local_unnamed_addr #0 {
  %6 = icmp slt i32 %1, 3
  %.neg = sext i1 %6 to i32
  %7 = add i32 %0, %.neg
  %8 = add nsw i32 %7, -399
  %9 = icmp slt i32 %7, 0
  %10 = select i1 %9, i32 %8, i32 %7
  %11 = sdiv i32 %10, 400
  %.neg36 = mul nsw i32 %11, -400
  %12 = add i32 %.neg36, %7
  %13 = icmp sgt i32 %1, 2
  %.v = select i1 %13, i32 -3, i32 9
  %14 = add nsw i32 %.v, %1
  %15 = mul nsw i32 %14, 153
  %16 = add nsw i32 %15, 2
  %17 = sdiv i32 %16, 5
  %18 = add nsw i32 %17, %2
  %19 = add nsw i32 %18, -1
  %20 = mul i32 %12, 365
  %21 = lshr i32 %12, 2
  %22 = udiv i32 %12, 100
  %23 = add i32 %21, %19
  %24 = add i32 %23, %20
  %25 = sub i32 %24, %22
  %26 = sext i32 %11 to i64
  %27 = mul nsw i64 %26, 146097
  %28 = zext i32 %25 to i64
  %29 = add nsw i64 %27, %28
  %.not = icmp eq ptr %3, null
  br i1 %.not, label %41, label %30

30:                                               ; preds = %5
  %31 = icmp sgt i64 %29, 719463
  br i1 %31, label %32, label %35

32:                                               ; preds = %30
  %33 = add nsw i64 %29, -719464
  %34 = urem i64 %33, 7
  br label %38

35:                                               ; preds = %30
  %.nonneg = sub nsw i64 719463, %29
  %36 = urem i64 %.nonneg, 7
  %37 = sub nuw nsw i64 6, %36
  br label %38

38:                                               ; preds = %35, %32
  %39 = phi i64 [ %34, %32 ], [ %37, %35 ]
  %40 = trunc nuw nsw i64 %39 to i32
  store i32 %40, ptr %3, align 4
  br label %41

41:                                               ; preds = %38, %5
  %.not37 = icmp eq ptr %4, null
  br i1 %.not37, label %56, label %42

42:                                               ; preds = %41
  %43 = icmp ugt i32 %19, 305
  br i1 %43, label %44, label %46

44:                                               ; preds = %42
  %45 = add i32 %18, -307
  br label %.sink.split

46:                                               ; preds = %42
  %47 = and i32 %7, 3
  %.not38 = icmp eq i32 %47, 0
  br i1 %.not38, label %48, label %53

48:                                               ; preds = %46
  %49 = srem i32 %7, 100
  %.not39 = icmp eq i32 %49, 0
  br i1 %.not39, label %50, label %53

50:                                               ; preds = %48
  %51 = srem i32 %7, 400
  %.not40 = icmp eq i32 %51, 0
  %52 = select i1 %.not40, i32 60, i32 59
  br label %53

53:                                               ; preds = %48, %50, %46
  %54 = phi i32 [ 59, %46 ], [ 60, %48 ], [ %52, %50 ]
  %55 = add nuw nsw i32 %54, %19
  br label %.sink.split

.sink.split:                                      ; preds = %53, %44
  %.sink = phi i32 [ %45, %44 ], [ %55, %53 ]
  store i32 %.sink, ptr %4, align 4
  br label %56

56:                                               ; preds = %.sink.split, %41
  %57 = add nsw i64 %29, -719468
  ret i64 %57
}